target datalayout = "e-m:e-p270:32:32-p271:32:32-p272:64:64-i64:64-i128:128-f80:128-n8:16:32:64-S128"
target triple = "x86_64-pc-linux-gnu"

; Function Attrs: nounwind uwtable
define internal double @trc_arib_std_b67_inv(double noundef %0) #0 {
  %2 = alloca double, align 8
  %3 = alloca double, align 8
  %4 = alloca double, align 8
  %5 = alloca double, align 8
  store double %0, ptr %2, align 8, !tbaa !27
  call void @llvm.lifetime.start.p0(i64 8, ptr %3) #7
  store double 0x3FC6E3FE014D320D, ptr %3, align 8, !tbaa !27
  call void @llvm.lifetime.start.p0(i64 8, ptr %4) #7
  store double 0x3FD23803FD659BE6, ptr %4, align 8, !tbaa !27
  call void @llvm.lifetime.start.p0(i64 8, ptr %5) #7
  store double 0x3FE1EAC9E840F18D, ptr %5, align 8, !tbaa !27
  %6 = load double, ptr %2, align 8, !tbaa !27
  %7 = fcmp nsz ogt double 0.000000e+00, %6
  br i1 %7, label %8, label %9

8:                                                ; preds = %1
  br label %26

9:                                                ; preds = %1
  %10 = load double, ptr %2, align 8, !tbaa !27
  %11 = fcmp nsz ole double %10, 5.000000e-01
  br i1 %11, label %12, label %17

12:                                               ; preds = %9
  %13 = load double, ptr %2, align 8, !tbaa !27
  %14 = load double, ptr %2, align 8, !tbaa !27
  %15 = fmul nsz double %13, %14
  %16 = fdiv nsz double %15, 3.000000e+00
  br label %24

17:                                               ; preds = %9
  %18 = load double, ptr %2, align 8, !tbaa !27
  %19 = fsub nsz double %18, 0x3FE1EAC9E840F18D
  %20 = fdiv nsz double %19, 0x3FC6E3FE014D320D
  %21 = call nsz double @llvm.exp.f64(double %20)
  %22 = fadd nsz double %21, 0x3FD23803FD659BE6
  %23 = fdiv nsz double %22, 1.200000e+01
  br label %24

24:                                               ; preds = %17, %12
  %25 = phi nsz double [ %16, %12 ], [ %23, %17 ]
  br label %26

26:                                               ; preds = %24, %8
  %27 = phi nsz double [ 0.000000e+00, %8 ], [ %25, %24 ]
  call void @llvm.lifetime.end.p0(i64 8, ptr %5) #7
  call void @llvm.lifetime.end.p0(i64 8, ptr %4) #7
  call void @llvm.lifetime.end.p0(i64 8, ptr %3) #7
  ret double %27
}

; Function Attrs: nounwind uwtable
define internal void @eotf_arib_std_b67(double noundef %0, double noundef %1, ptr noundef %2) #0 {
  %4 = alloca double, align 8
  %5 = alloca double, align 8
  %6 = alloca ptr, align 8
  %7 = alloca double, align 8
  %8 = alloca double, align 8
  %9 = alloca double, align 8
  %10 = alloca i32, align 4
  %11 = alloca i32, align 4
  store double %0, ptr %4, align 8, !tbaa !27
  store double %1, ptr %5, align 8, !tbaa !27
  store ptr %2, ptr %6, align 8, !tbaa !30
  call void @llvm.lifetime.start.p0(i64 8, ptr %7) #7
  %12 = load double, ptr %4, align 8, !tbaa !27
  %13 = fdiv nsz double %12, 1.000000e+03
  %14 = call nsz double @llvm.log10.f64(double %13)
  %15 = call nsz double @llvm.fmuladd.f64(double 4.200000e-01, double %14, double 1.200000e+00)
  %16 = call nsz double @llvm.maxnum.f64(double %15, double 1.000000e+00)
  store double %16, ptr %7, align 8, !tbaa !27
  call void @llvm.lifetime.start.p0(i64 8, ptr %8) #7
  %17 = load double, ptr %5, align 8, !tbaa !27
  %18 = load double, ptr %4, align 8, !tbaa !27
  %19 = fdiv nsz double %17, %18
  %20 = load double, ptr %7, align 8, !tbaa !27
  %21 = fdiv nsz double 1.000000e+00, %20
  %22 = call nsz double @llvm.pow.f64(double %19, double %21)
  %23 = fmul nsz double 3.000000e+00, %22
  %24 = call nsz double @llvm.sqrt.f64(double %23)
  store double %24, ptr %8, align 8, !tbaa !27
  call void @llvm.lifetime.start.p0(i64 8, ptr %9) #7
  call void @llvm.lifetime.start.p0(i64 4, ptr %10) #7
  store i32 0, ptr %10, align 4, !tbaa !4
  br label %25

25:                                               ; preds = %44, %3
  %26 = load i32, ptr %10, align 4, !tbaa !4
  %27 = icmp slt i32 %26, 3
  br i1 %27, label %29, label %28

28:                                               ; preds = %25
  call void @llvm.lifetime.end.p0(i64 4, ptr %10) #7
  br label %47

29:                                               ; preds = %25
  %30 = load double, ptr %8, align 8, !tbaa !27
  %31 = fsub nsz double 1.000000e+00, %30
  %32 = load ptr, ptr %6, align 8, !tbaa !30
  %33 = load i32, ptr %10, align 4, !tbaa !4
  %34 = sext i32 %33 to i64
  %35 = getelementptr inbounds double, ptr %32, i64 %34
  %36 = load double, ptr %35, align 8, !tbaa !27
  %37 = load double, ptr %8, align 8, !tbaa !27
  %38 = call nsz double @llvm.fmuladd.f64(double %31, double %36, double %37)
  %39 = call nsz double @trc_arib_std_b67_inv(double noundef %38)
  %40 = load ptr, ptr %6, align 8, !tbaa !30
  %41 = load i32, ptr %10, align 4, !tbaa !4
  %42 = sext i32 %41 to i64
  %43 = getelementptr inbounds double, ptr %40, i64 %42
  store double %39, ptr %43, align 8, !tbaa !27
  br label %44

44:                                               ; preds = %29
  %45 = load i32, ptr %10, align 4, !tbaa !4
  %46 = add nsw i32 %45, 1
  store i32 %46, ptr %10, align 4, !tbaa !4
  br label %25, !llvm.loop !36

47:                                               ; preds = %28
  %48 = load ptr, ptr %6, align 8, !tbaa !30
  %49 = getelementptr inbounds double, ptr %48, i64 0
  %50 = load double, ptr %49, align 8, !tbaa !27
  %51 = load ptr, ptr %6, align 8, !tbaa !30
  %52 = getelementptr inbounds double, ptr %51, i64 1
  %53 = load double, ptr %52, align 8, !tbaa !27
  %54 = fmul nsz double 6.780000e-01, %53
  %55 = call nsz double @llvm.fmuladd.f64(double 2.627000e-01, double %50, double %54)
  %56 = load ptr, ptr %6, align 8, !tbaa !30
  %57 = getelementptr inbounds double, ptr %56, i64 2
  %58 = load double, ptr %57, align 8, !tbaa !27
  %59 = call nsz double @llvm.fmuladd.f64(double 5.930000e-02, double %58, double %55)
  store double %59, ptr %9, align 8, !tbaa !27
  %60 = load double, ptr %9, align 8, !tbaa !27
  %61 = call nsz double @llvm.maxnum.f64(double %60, double 0.000000e+00)
  %62 = load double, ptr %7, align 8, !tbaa !27
  %63 = fsub nsz double %62, 1.000000e+00
  %64 = call nsz double @llvm.pow.f64(double %61, double %63)
  store double %64, ptr %9, align 8, !tbaa !27
  call void @llvm.lifetime.start.p0(i64 4, ptr %11) #7
  store i32 0, ptr %11, align 4, !tbaa !4
  br label %65

65:                                               ; preds = %79, %47
  %66 = load i32, ptr %11, align 4, !tbaa !4
  %67 = icmp slt i32 %66, 3
  br i1 %67, label %69, label %68

68:                                               ; preds = %65
  call void @llvm.lifetime.end.p0(i64 4, ptr %11) #7
  br label %82

69:                                               ; preds = %65
  %70 = load double, ptr %4, align 8, !tbaa !27
  %71 = load double, ptr %9, align 8, !tbaa !27
  %72 = fmul nsz double %70, %71
  %73 = load ptr, ptr %6, align 8, !tbaa !30
  %74 = load i32, ptr %11, align 4, !tbaa !4
  %75 = sext i32 %74 to i64
  %76 = getelementptr inbounds double, ptr %73, i64 %75
  %77 = load double, ptr %76, align 8, !tbaa !27
  %78 = fmul nsz double %77, %72
  store double %78, ptr %76, align 8, !tbaa !27
  br label %79

79:                                               ; preds = %69
  %80 = load i32, ptr %11, align 4, !tbaa !4
  %81 = add nsw i32 %80, 1
  store i32 %81, ptr %11, align 4, !tbaa !4
  br label %65, !llvm.loop !37

82:                                               ; preds = %68
  call void @llvm.lifetime.end.p0(i64 8, ptr %9) #7
  call void @llvm.lifetime.end.p0(i64 8, ptr %8) #7
  call void @llvm.lifetime.end.p0(i64 8, ptr %7) #7
  ret void
}