; Function Attrs: nofree norecurse nosync nounwind memory(argmem: readwrite) uwtable
define internal void @eotf_arib_std_b67(double noundef %0, double noundef %1, ptr noundef captures(none) %2) #5 {
  %4 = fdiv nsz double %0, 1.000000e+03
  %5 = tail call nsz double @llvm.log10.f64(double %4)
  %6 = tail call nsz double @llvm.fmuladd.f64(double %5, double 4.200000e-01, double 1.200000e+00)
  %7 = tail call nsz double @llvm.maxnum.f64(double %6, double 1.000000e+00)
  %8 = fdiv nsz double %1, %0
  %9 = fdiv nsz double 1.000000e+00, %7
  %10 = tail call nsz double @llvm.pow.f64(double %8, double %9)
  %11 = fmul nsz double %10, 3.000000e+00
  %12 = tail call nsz double @llvm.sqrt.f64(double %11)
  %13 = fsub nsz double 1.000000e+00, %12
  br label %27

14:                                               ; preds = %trc_arib_std_b67_inv.exit
  %15 = load double, ptr %2, align 8, !tbaa !16
  %16 = getelementptr inbounds nuw i8, ptr %2, i64 8
  %17 = load double, ptr %16, align 8, !tbaa !16
  %18 = fmul nsz double %17, 6.780000e-01
  %19 = tail call nsz double @llvm.fmuladd.f64(double %15, double 2.627000e-01, double %18)
  %20 = getelementptr inbounds nuw i8, ptr %2, i64 16
  %21 = load double, ptr %20, align 8, !tbaa !16
  %22 = tail call nsz double @llvm.fmuladd.f64(double %21, double 5.930000e-02, double %19)
  %23 = tail call nsz double @llvm.maxnum.f64(double %22, double 0.000000e+00)
  %24 = fadd nsz double %7, -1.000000e+00
  %25 = tail call nsz double @llvm.pow.f64(double %23, double %24)
  %26 = fmul nsz double %0, %25
  br label %45

27:                                               ; preds = %3, %trc_arib_std_b67_inv.exit
  %indvars.iv = phi i64 [ 0, %3 ], [ %indvars.iv.next, %trc_arib_std_b67_inv.exit ]
  %28 = getelementptr inbounds nuw double, ptr %2, i64 %indvars.iv
  %29 = load double, ptr %28, align 8, !tbaa !16
  %30 = tail call nsz double @llvm.fmuladd.f64(double %13, double %29, double %12)
  %31 = fcmp nsz olt double %30, 0.000000e+00
  br i1 %31, label %trc_arib_std_b67_inv.exit, label %32

32:                                               ; preds = %27
  %33 = fcmp nsz ugt double %30, 5.000000e-01
  br i1 %33, label %37, label %34

34:                                               ; preds = %32
  %35 = fmul nsz double %30, %30
  %36 = fdiv nsz double %35, 3.000000e+00
  br label %trc_arib_std_b67_inv.exit

37:                                               ; preds = %32
  %38 = fadd nsz double %30, 0xBFE1EAC9E840F18D
  %39 = fdiv nsz double %38, 0x3FC6E3FE014D320D
  %40 = tail call nsz double @llvm.exp.f64(double %39)
  %41 = fadd nsz double %40, 0x3FD23803FD659BE6
  %42 = fdiv nsz double %41, 1.200000e+01
  br label %trc_arib_std_b67_inv.exit

trc_arib_std_b67_inv.exit:                        ; preds = %27, %34, %37
  %43 = phi nsz double [ 0.000000e+00, %27 ], [ %36, %34 ], [ %42, %37 ]
  store double %43, ptr %28, align 8, !tbaa !16
  %indvars.iv.next = add nuw nsw i64 %indvars.iv, 1
  %exitcond.not = icmp eq i64 %indvars.iv.next, 3
  br i1 %exitcond.not, label %14, label %27, !llvm.loop !27

44:                                               ; preds = %45
  ret void

45:                                               ; preds = %14, %45
  %indvars.iv26 = phi i64 [ 0, %14 ], [ %indvars.iv.next27, %45 ]
  %46 = getelementptr inbounds nuw double, ptr %2, i64 %indvars.iv26
  %47 = load double, ptr %46, align 8, !tbaa !16
  %48 = fmul nsz double %26, %47
  store double %48, ptr %46, align 8, !tbaa !16
  %indvars.iv.next27 = add nuw nsw i64 %indvars.iv26, 1
  %exitcond29.not = icmp eq i64 %indvars.iv.next27, 3
  br i1 %exitcond29.not, label %44, label %45, !llvm.loop !28
}